target datalayout = "e-m:e-p270:32:32-p271:32:32-p272:64:64-i64:64-i128:128-f80:128-n8:16:32:64-S128"
target triple = "x86_64-pc-linux-gnu"

%"class.icu_77::RelativeDateFormat" = type { %"class.icu_77::DateFormat", ptr, %"class.icu_77::UnicodeString", %"class.icu_77::UnicodeString", ptr, i32, [4 x i8], %"class.icu_77::Locale", i32, ptr, i8, i8, i8, i8, ptr }
%"class.icu_77::DateFormat" = type { %"class.icu_77::Format", ptr, ptr, %"class.icu_77::EnumSet", i32 }
%"class.icu_77::Format" = type { %"class.icu_77::UObject", ptr, ptr }
%"class.icu_77::UObject" = type { ptr }
%"class.icu_77::EnumSet" = type { i32 }
%"class.icu_77::UnicodeString" = type { %"class.icu_77::Replaceable", %"union.icu_77::UnicodeString::StackBufferOrFields" }
%"class.icu_77::Replaceable" = type { %"class.icu_77::UObject" }
%"union.icu_77::UnicodeString::StackBufferOrFields" = type { %struct.anon.0, [32 x i8] }
%struct.anon.0 = type { i16, i32, i32, ptr }
%"class.icu_77::Locale" = type <{ %"class.icu_77::UObject", [12 x i8], [6 x i8], [4 x i8], [2 x i8], i32, [4 x i8], ptr, [157 x i8], [3 x i8], ptr, i8, [7 x i8] }>
%"struct.icu_77::URelativeString" = type { i32, i32, ptr }

; Function Attrs: inlinehint mustprogress nounwind uwtable
define internal noundef signext i8 @_ZL9U_FAILURE10UErrorCode(i32 noundef %0) #7 {
  %2 = alloca i32, align 4
  store i32 %0, ptr %2, align 4, !tbaa !44
  %3 = load i32, ptr %2, align 4, !tbaa !44
  %4 = icmp sgt i32 %3, 0
  %5 = zext i1 %4 to i8
  ret i8 %5
}

; Function Attrs: mustprogress uwtable
define noundef ptr @_ZNK6icu_7718RelativeDateFormat15getStringForDayEiRiR10UErrorCode(ptr noundef nonnull align 8 dereferenceable(456) %0, i32 noundef %1, ptr noundef nonnull align 4 dereferenceable(4) %2, ptr noundef nonnull align 4 dereferenceable(4) %3) #1 align 2 {
  %5 = alloca ptr, align 8
  %6 = alloca ptr, align 8
  %7 = alloca i32, align 4
  %8 = alloca ptr, align 8
  %9 = alloca ptr, align 8
  %10 = alloca i32, align 4
  %11 = alloca i32, align 4
  store ptr %0, ptr %6, align 8, !tbaa !3
  store i32 %1, ptr %7, align 4, !tbaa !57
  store ptr %2, ptr %8, align 8, !tbaa !66
  store ptr %3, ptr %9, align 8, !tbaa !43
  %12 = load ptr, ptr %6, align 8
  %13 = load ptr, ptr %9, align 8, !tbaa !43
  %14 = load i32, ptr %13, align 4, !tbaa !44
  %15 = call noundef signext i8 @_ZL9U_FAILURE10UErrorCode(i32 noundef %14)
  %16 = icmp ne i8 %15, 0
  br i1 %16, label %17, label %18

17:                                               ; preds = %4
  store ptr null, ptr %5, align 8
  br label %66

18:                                               ; preds = %4
  call void @llvm.lifetime.start.p0(i64 4, ptr %10) #13
  %19 = load i32, ptr %7, align 4, !tbaa !57
  %20 = add nsw i32 %19, 2
  store i32 %20, ptr %10, align 4, !tbaa !57
  %21 = load i32, ptr %10, align 4, !tbaa !57
  %22 = icmp sge i32 %21, 0
  br i1 %22, label %23, label %64

23:                                               ; preds = %18
  %24 = load i32, ptr %10, align 4, !tbaa !57
  %25 = getelementptr inbounds nuw %"class.icu_77::RelativeDateFormat", ptr %12, i32 0, i32 8
  %26 = load i32, ptr %25, align 8, !tbaa !32
  %27 = icmp slt i32 %24, %26
  br i1 %27, label %28, label %64

28:                                               ; preds = %23
  %29 = getelementptr inbounds nuw %"class.icu_77::RelativeDateFormat", ptr %12, i32 0, i32 9
  %30 = load ptr, ptr %29, align 8, !tbaa !33
  %31 = load i32, ptr %10, align 4, !tbaa !57
  %32 = sext i32 %31 to i64
  %33 = getelementptr inbounds %"struct.icu_77::URelativeString", ptr %30, i64 %32
  %34 = getelementptr inbounds nuw %"struct.icu_77::URelativeString", ptr %33, i32 0, i32 0
  %35 = load i32, ptr %34, align 8, !tbaa !68
  %36 = load i32, ptr %7, align 4, !tbaa !57
  %37 = icmp eq i32 %35, %36
  br i1 %37, label %38, label %63

38:                                               ; preds = %28
  %39 = getelementptr inbounds nuw %"class.icu_77::RelativeDateFormat", ptr %12, i32 0, i32 9
  %40 = load ptr, ptr %39, align 8, !tbaa !33
  %41 = load i32, ptr %10, align 4, !tbaa !57
  %42 = sext i32 %41 to i64
  %43 = getelementptr inbounds %"struct.icu_77::URelativeString", ptr %40, i64 %42
  %44 = getelementptr inbounds nuw %"struct.icu_77::URelativeString", ptr %43, i32 0, i32 2
  %45 = load ptr, ptr %44, align 8, !tbaa !70
  %46 = icmp ne ptr %45, null
  br i1 %46, label %47, label %63

47:                                               ; preds = %38
  %48 = getelementptr inbounds nuw %"class.icu_77::RelativeDateFormat", ptr %12, i32 0, i32 9
  %49 = load ptr, ptr %48, align 8, !tbaa !33
  %50 = load i32, ptr %10, align 4, !tbaa !57
  %51 = sext i32 %50 to i64
  %52 = getelementptr inbounds %"struct.icu_77::URelativeString", ptr %49, i64 %51
  %53 = getelementptr inbounds nuw %"struct.icu_77::URelativeString", ptr %52, i32 0, i32 1
  %54 = load i32, ptr %53, align 4, !tbaa !71
  %55 = load ptr, ptr %8, align 8, !tbaa !66
  store i32 %54, ptr %55, align 4, !tbaa !57
  %56 = getelementptr inbounds nuw %"class.icu_77::RelativeDateFormat", ptr %12, i32 0, i32 9
  %57 = load ptr, ptr %56, align 8, !tbaa !33
  %58 = load i32, ptr %10, align 4, !tbaa !57
  %59 = sext i32 %58 to i64
  %60 = getelementptr inbounds %"struct.icu_77::URelativeString", ptr %57, i64 %59
  %61 = getelementptr inbounds nuw %"struct.icu_77::URelativeString", ptr %60, i32 0, i32 2
  %62 = load ptr, ptr %61, align 8, !tbaa !70
  store ptr %62, ptr %5, align 8
  store i32 1, ptr %11, align 4
  br label %65

63:                                               ; preds = %38, %28
  br label %64

64:                                               ; preds = %63, %23, %18
  store ptr null, ptr %5, align 8
  store i32 1, ptr %11, align 4
  br label %65

65:                                               ; preds = %64, %47
  call void @llvm.lifetime.end.p0(i64 4, ptr %10) #13
  br label %66

66:                                               ; preds = %65, %17
  %67 = load ptr, ptr %5, align 8
  ret ptr %67
}