; Function Attrs: mustprogress nofree norecurse nosync nounwind willreturn memory(read, argmem: readwrite, inaccessiblemem: none) uwtable
define noundef ptr @_ZNK6icu_7718RelativeDateFormat15getStringForDayEiRiR10UErrorCode(ptr noundef nonnull readonly align 8 captures(none) dereferenceable(456) %0, i32 noundef %1, ptr noundef nonnull writeonly align 4 captures(none) dereferenceable(4) %2, ptr noundef nonnull readonly align 4 captures(none) dereferenceable(4) %3) local_unnamed_addr #11 align 2 {
  %5 = load i32, ptr %3, align 4, !tbaa !38
  %6 = icmp slt i32 %5, 1
  br i1 %6, label %7, label %26

7:                                                ; preds = %4
  %8 = add nsw i32 %1, 2
  %9 = icmp sgt i32 %1, -3
  %10 = getelementptr inbounds nuw i8, ptr %0, i64 424
  %11 = load i32, ptr %10, align 8
  %12 = icmp slt i32 %8, %11
  %or.cond = select i1 %9, i1 %12, i1 false
  br i1 %or.cond, label %13, label %26

13:                                               ; preds = %7
  %14 = getelementptr inbounds nuw i8, ptr %0, i64 432
  %15 = load ptr, ptr %14, align 8, !tbaa !31
  %16 = zext nneg i32 %8 to i64
  %17 = getelementptr inbounds nuw %"struct.icu_77::URelativeString", ptr %15, i64 %16
  %18 = load i32, ptr %17, align 8, !tbaa !53
  %19 = icmp eq i32 %18, %1
  br i1 %19, label %20, label %26

20:                                               ; preds = %13
  %21 = getelementptr inbounds nuw i8, ptr %17, i64 8
  %22 = load ptr, ptr %21, align 8, !tbaa !55
  %.not12 = icmp eq ptr %22, null
  br i1 %.not12, label %26, label %23

23:                                               ; preds = %20
  %24 = getelementptr inbounds nuw i8, ptr %17, i64 4
  %25 = load i32, ptr %24, align 4, !tbaa !56
  store i32 %25, ptr %2, align 4, !tbaa !44
  br label %26

26:                                               ; preds = %23, %13, %20, %7, %4
  %.0 = phi ptr [ null, %4 ], [ %22, %23 ], [ null, %13 ], [ null, %20 ], [ null, %7 ]
  ret ptr %.0
}